; Function Attrs: mustprogress uwtable
define { double, double } @_ZNK32pxrInternal_v0_24__pxrReserved__9GfRange2d9GetCornerEm(ptr nocapture noundef nonnull readonly align 8 dereferenceable(32) %0, i64 noundef %1) local_unnamed_addr #0 align 2 {
  %3 = alloca %"class.pxrInternal_v0_24__pxrReserved__::TfCallContext", align 8
  %4 = icmp ugt i64 %1, 3
  br i1 %4, label %5, label %10

5:                                                ; preds = %2
  store ptr @.str.3, ptr %3, align 8
  %6 = getelementptr inbounds nuw i8, ptr %3, i64 8
  store ptr @__func__._ZNK32pxrInternal_v0_24__pxrReserved__9GfRange2d9GetCornerEm, ptr %6, align 8
  %7 = getelementptr inbounds nuw i8, ptr %3, i64 16
  store i64 71, ptr %7, align 8
  %8 = getelementptr inbounds nuw i8, ptr %3, i64 24
  store ptr @__PRETTY_FUNCTION__._ZNK32pxrInternal_v0_24__pxrReserved__9GfRange2d9GetCornerEm, ptr %8, align 8
  %9 = getelementptr inbounds nuw i8, ptr %3, i64 32
  store i8 0, ptr %9, align 8
  call void (ptr, i32, ptr, ...) @_ZN32pxrInternal_v0_24__pxrReserved__18Tf_PostErrorHelperERKNS_13TfCallContextENS_16TfDiagnosticTypeEPKcz(ptr noundef nonnull align 8 dereferenceable(33) %3, i32 noundef 1, ptr noundef nonnull @.str.4, i64 noundef %1)
  %.sroa.0.0.copyload = load double, ptr %0, align 8
  br label %15

10:                                               ; preds = %2
  %11 = and i64 %1, 1
  %.not = icmp eq i64 %11, 0
  %12 = getelementptr inbounds nuw i8, ptr %0, i64 16
  %.val = load double, ptr %0, align 8
  %.val5 = load double, ptr %12, align 8
  %13 = select i1 %.not, double %.val, double %.val5
  %.not4 = icmp ult i64 %1, 2
  %14 = select i1 %.not4, ptr %0, ptr %12
  br label %15

15:                                               ; preds = %10, %5
  %.pn = phi ptr [ %0, %5 ], [ %14, %10 ]
  %.sroa.0.0 = phi double [ %.sroa.0.0.copyload, %5 ], [ %13, %10 ]
  %.sroa.3.0.in = getelementptr inbounds i8, ptr %.pn, i64 8
  %.sroa.3.0 = load double, ptr %.sroa.3.0.in, align 8
  %.fca.0.insert = insertvalue { double, double } poison, double %.sroa.0.0, 0
  %.fca.1.insert = insertvalue { double, double } %.fca.0.insert, double %.sroa.3.0, 1
  ret { double, double } %.fca.1.insert
}